target datalayout = "e-m:e-p270:32:32-p271:32:32-p272:64:64-i64:64-i128:128-f80:128-n8:16:32:64-S128"
target triple = "x86_64-pc-linux-gnu"

%class.MachNode = type { %class.Node.base, i8, i16, ptr }
%class.Node.base = type <{ ptr, ptr, ptr, i32, i32, i32, i32, i32, i32, i32 }>

; Function Attrs: mustprogress nounwind uwtable
define hidden noundef nonnull align 8 dereferenceable(96) ptr @_ZNK15vaddB_mem_0Node11out_RegMaskEv(ptr noundef nonnull align 8 dereferenceable(96) %0) unnamed_addr #1 align 2 {
  %2 = alloca ptr, align 8
  store ptr %0, ptr %2, align 8
  %3 = load ptr, ptr %2, align 8
  %4 = getelementptr inbounds %class.MachNode, ptr %3, i32 0, i32 3
  %5 = load ptr, ptr %4, align 8
  %6 = getelementptr inbounds ptr, ptr %5, i64 0
  %7 = load ptr, ptr %6, align 8
  %8 = load ptr, ptr %7, align 8
  %9 = getelementptr inbounds ptr, ptr %8, i64 2
  %10 = load ptr, ptr %9, align 8
  %11 = call noundef ptr %10(ptr noundef nonnull align 8 dereferenceable(8) %7, i32 noundef 0)
  ret ptr %11
}